; ModuleID = '21/1816.c'
source_filename = "21/1816.c"
target datalayout = "e-m:e-p270:32:32-p271:32:32-p272:64:64-i64:64-f80:128-n8:16:32:64-S128"
target triple = "x86_64-pc-linux-gnu"

@.str = private unnamed_addr constant [3 x i8] c"%d\00", align 1
@.str.1 = private unnamed_addr constant [6 x i8] c"%d,%d\00", align 1

; Function Attrs: noinline nounwind uwtable
define dso_local void @main() #0 {
  %1 = alloca i32, align 4
  %2 = alloca i32, align 4
  %3 = alloca i32, align 4
  %4 = alloca i32*, align 8
  %5 = alloca i32, align 4
  %6 = alloca float, align 4
  %7 = alloca float, align 4
  %8 = call i32 (i8*, ...) @__isoc99_scanf(i8* getelementptr inbounds ([3 x i8], [3 x i8]* @.str, i64 0, i64 0), i32* %1)
  %9 = load i32, i32* %1, align 4
  %10 = sext i32 %9 to i64
  %11 = mul i64 4, %10
  %12 = call noalias i8* @malloc(i64 %11) #4
  %13 = bitcast i8* %12 to i32*
  store i32* %13, i32** %4, align 8
  store i32 0, i32* %2, align 4
  br label %14

14:                                               ; preds = %24, %0
  %15 = load i32, i32* %2, align 4
  %16 = load i32, i32* %1, align 4
  %17 = icmp slt i32 %15, %16
  br i1 %17, label %18, label %27

18:                                               ; preds = %14
  %19 = load i32*, i32** %4, align 8
  %20 = load i32, i32* %2, align 4
  %21 = sext i32 %20 to i64
  %22 = getelementptr inbounds i32, i32* %19, i64 %21
  %23 = call i32 (i8*, ...) @__isoc99_scanf(i8* getelementptr inbounds ([3 x i8], [3 x i8]* @.str, i64 0, i64 0), i32* %22)
  br label %24

24:                                               ; preds = %18
  %25 = load i32, i32* %2, align 4
  %26 = add nsw i32 %25, 1
  store i32 %26, i32* %2, align 4
  br label %14

27:                                               ; preds = %14
  store i32 0, i32* %2, align 4
  br label %28

28:                                               ; preds = %81, %27
  %29 = load i32, i32* %2, align 4
  %30 = load i32, i32* %1, align 4
  %31 = sub nsw i32 %30, 1
  %32 = icmp slt i32 %29, %31
  br i1 %32, label %33, label %84

33:                                               ; preds = %28
  store i32 0, i32* %3, align 4
  br label %34

34:                                               ; preds = %77, %33
  %35 = load i32, i32* %3, align 4
  %36 = load i32, i32* %1, align 4
  %37 = sub nsw i32 %36, 1
  %38 = load i32, i32* %2, align 4
  %39 = sub nsw i32 %37, %38
  %40 = icmp slt i32 %35, %39
  br i1 %40, label %41, label %80

41:                                               ; preds = %34
  %42 = load i32*, i32** %4, align 8
  %43 = load i32, i32* %3, align 4
  %44 = sext i32 %43 to i64
  %45 = getelementptr inbounds i32, i32* %42, i64 %44
  %46 = load i32, i32* %45, align 4
  %47 = load i32*, i32** %4, align 8
  %48 = load i32, i32* %3, align 4
  %49 = add nsw i32 %48, 1
  %50 = sext i32 %49 to i64
  %51 = getelementptr inbounds i32, i32* %47, i64 %50
  %52 = load i32, i32* %51, align 4
  %53 = icmp sgt i32 %46, %52
  br i1 %53, label %54, label %76

54:                                               ; preds = %41
  %55 = load i32*, i32** %4, align 8
  %56 = load i32, i32* %3, align 4
  %57 = sext i32 %56 to i64
  %58 = getelementptr inbounds i32, i32* %55, i64 %57
  %59 = load i32, i32* %58, align 4
  store i32 %59, i32* %5, align 4
  %60 = load i32*, i32** %4, align 8
  %61 = load i32, i32* %3, align 4
  %62 = add nsw i32 %61, 1
  %63 = sext i32 %62 to i64
  %64 = getelementptr inbounds i32, i32* %60, i64 %63
  %65 = load i32, i32* %64, align 4
  %66 = load i32*, i32** %4, align 8
  %67 = load i32, i32* %3, align 4
  %68 = sext i32 %67 to i64
  %69 = getelementptr inbounds i32, i32* %66, i64 %68
  store i32 %65, i32* %69, align 4
  %70 = load i32, i32* %5, align 4
  %71 = load i32*, i32** %4, align 8
  %72 = load i32, i32* %3, align 4
  %73 = add nsw i32 %72, 1
  %74 = sext i32 %73 to i64
  %75 = getelementptr inbounds i32, i32* %71, i64 %74
  store i32 %70, i32* %75, align 4
  br label %76

76:                                               ; preds = %54, %41
  br label %77

77:                                               ; preds = %76
  %78 = load i32, i32* %3, align 4
  %79 = add nsw i32 %78, 1
  store i32 %79, i32* %3, align 4
  br label %34

80:                                               ; preds = %34
  br label %81

81:                                               ; preds = %80
  %82 = load i32, i32* %2, align 4
  %83 = add nsw i32 %82, 1
  store i32 %83, i32* %2, align 4
  br label %28

84:                                               ; preds = %28
  store float 0.000000e+00, float* %7, align 4
  store i32 0, i32* %2, align 4
  br label %85

85:                                               ; preds = %98, %84
  %86 = load i32, i32* %2, align 4
  %87 = load i32, i32* %1, align 4
  %88 = icmp slt i32 %86, %87
  br i1 %88, label %89, label %101

89:                                               ; preds = %85
  %90 = load i32*, i32** %4, align 8
  %91 = load i32, i32* %2, align 4
  %92 = sext i32 %91 to i64
  %93 = getelementptr inbounds i32, i32* %90, i64 %92
  %94 = load i32, i32* %93, align 4
  %95 = sitofp i32 %94 to float
  %96 = load float, float* %7, align 4
  %97 = fadd float %96, %95
  store float %97, float* %7, align 4
  br label %98

98:                                               ; preds = %89
  %99 = load i32, i32* %2, align 4
  %100 = add nsw i32 %99, 1
  store i32 %100, i32* %2, align 4
  br label %85

101:                                              ; preds = %85
  %102 = load float, float* %7, align 4
  %103 = load i32, i32* %1, align 4
  %104 = sitofp i32 %103 to float
  %105 = fdiv float %102, %104
  store float %105, float* %6, align 4
  %106 = load float, float* %6, align 4
  %107 = load i32*, i32** %4, align 8
  %108 = getelementptr inbounds i32, i32* %107, i64 0
  %109 = load i32, i32* %108, align 4
  %110 = sitofp i32 %109 to float
  %111 = fsub float %106, %110
  %112 = fpext float %111 to double
  %113 = call double @llvm.fabs.f64(double %112)
  %114 = load float, float* %6, align 4
  %115 = load i32*, i32** %4, align 8
  %116 = load i32, i32* %1, align 4
  %117 = sub nsw i32 %116, 1
  %118 = sext i32 %117 to i64
  %119 = getelementptr inbounds i32, i32* %115, i64 %118
  %120 = load i32, i32* %119, align 4
  %121 = sitofp i32 %120 to float
  %122 = fsub float %114, %121
  %123 = fpext float %122 to double
  %124 = call double @llvm.fabs.f64(double %123)
  %125 = fsub double %113, %124
  %126 = fcmp ogt double %125, 0.000000e+00
  br i1 %126, label %127, label %132

127:                                              ; preds = %101
  %128 = load i32*, i32** %4, align 8
  %129 = getelementptr inbounds i32, i32* %128, i64 0
  %130 = load i32, i32* %129, align 4
  %131 = call i32 (i8*, ...) @printf(i8* getelementptr inbounds ([3 x i8], [3 x i8]* @.str, i64 0, i64 0), i32 %130)
  br label %174

132:                                              ; preds = %101
  %133 = load float, float* %6, align 4
  %134 = load i32*, i32** %4, align 8
  %135 = getelementptr inbounds i32, i32* %134, i64 0
  %136 = load i32, i32* %135, align 4
  %137 = sitofp i32 %136 to float
  %138 = fsub float %133, %137
  %139 = fpext float %138 to double
  %140 = call double @llvm.fabs.f64(double %139)
  %141 = load float, float* %6, align 4
  %142 = load i32*, i32** %4, align 8
  %143 = load i32, i32* %1, align 4
  %144 = sub nsw i32 %143, 1
  %145 = sext i32 %144 to i64
  %146 = getelementptr inbounds i32, i32* %142, i64 %145
  %147 = load i32, i32* %146, align 4
  %148 = sitofp i32 %147 to float
  %149 = fsub float %141, %148
  %150 = fpext float %149 to double
  %151 = call double @llvm.fabs.f64(double %150)
  %152 = fsub double %140, %151
  %153 = fcmp olt double %152, 0.000000e+00
  br i1 %153, label %154, label %162

154:                                              ; preds = %132
  %155 = load i32*, i32** %4, align 8
  %156 = load i32, i32* %1, align 4
  %157 = sub nsw i32 %156, 1
  %158 = sext i32 %157 to i64
  %159 = getelementptr inbounds i32, i32* %155, i64 %158
  %160 = load i32, i32* %159, align 4
  %161 = call i32 (i8*, ...) @printf(i8* getelementptr inbounds ([3 x i8], [3 x i8]* @.str, i64 0, i64 0), i32 %160)
  br label %173

162:                                              ; preds = %132
  %163 = load i32*, i32** %4, align 8
  %164 = getelementptr inbounds i32, i32* %163, i64 0
  %165 = load i32, i32* %164, align 4
  %166 = load i32*, i32** %4, align 8
  %167 = load i32, i32* %1, align 4
  %168 = sub nsw i32 %167, 1
  %169 = sext i32 %168 to i64
  %170 = getelementptr inbounds i32, i32* %166, i64 %169
  %171 = load i32, i32* %170, align 4
  %172 = call i32 (i8*, ...) @printf(i8* getelementptr inbounds ([6 x i8], [6 x i8]* @.str.1, i64 0, i64 0), i32 %165, i32 %171)
  br label %173

173:                                              ; preds = %162, %154
  br label %174

174:                                              ; preds = %173, %127
  ret void
}

declare dso_local i32 @__isoc99_scanf(i8*, ...) #1

; Function Attrs: nounwind
declare dso_local noalias i8* @malloc(i64) #2

; Function Attrs: nounwind readnone speculatable willreturn
declare double @llvm.fabs.f64(double) #3

declare dso_local i32 @printf(i8*, ...) #1


!llvm.module.flags = !{!0}
!llvm.ident = !{!1}

!0 = !{i32 1, !"wchar_size", i32 4}
!1 = !{!"clang version 10.0.0-4ubuntu1 "}
